; Function Attrs: mustprogress nofree nounwind willreturn memory(read, inaccessiblemem: none) uwtable
define dso_local { ptr, i64 } @_ZN4llvm7AArch6415resolveCPUAliasENS_9StringRefE(ptr %0, i64 %1) local_unnamed_addr #5 {
  %3 = icmp eq i64 %1, 0
  br label %4

4:                                                ; preds = %2, %_ZN4llvmeqENS_9StringRefES0_.exit.thread12
  %.0.idx15 = phi i64 [ 0, %2 ], [ %.0.add, %_ZN4llvmeqENS_9StringRefES0_.exit.thread12 ]
  %.0.ptr16 = getelementptr inbounds nuw i8, ptr @_ZN4llvm7AArch6410CpuAliasesE, i64 %.0.idx15
  %.sroa.01.0.copyload = load ptr, ptr %.0.ptr16, align 16
  %.sroa.22.0..sroa_idx = getelementptr inbounds nuw i8, ptr %.0.ptr16, i64 8
  %.sroa.22.0.copyload = load i64, ptr %.sroa.22.0..sroa_idx, align 8
  %.not.i = icmp eq i64 %.sroa.22.0.copyload, %1
  br i1 %.not.i, label %5, label %_ZN4llvmeqENS_9StringRefES0_.exit.thread12

5:                                                ; preds = %4
  br i1 %3, label %_ZN4llvmeqENS_9StringRefES0_.exit.thread, label %_ZN4llvmeqENS_9StringRefES0_.exit

_ZN4llvmeqENS_9StringRefES0_.exit:                ; preds = %5
  %bcmp.i = tail call i32 @bcmp(ptr %.sroa.01.0.copyload, ptr %0, i64 %1)
  %6 = icmp eq i32 %bcmp.i, 0
  br i1 %6, label %_ZN4llvmeqENS_9StringRefES0_.exit.thread, label %_ZN4llvmeqENS_9StringRefES0_.exit.thread12

_ZN4llvmeqENS_9StringRefES0_.exit.thread:         ; preds = %5, %_ZN4llvmeqENS_9StringRefES0_.exit
  %7 = getelementptr inbounds nuw i8, ptr %.0.ptr16, i64 16
  %.sroa.09.0.copyload = load ptr, ptr %7, align 8
  %.sroa.310.0..sroa_idx = getelementptr inbounds nuw i8, ptr %.0.ptr16, i64 24
  %.sroa.310.0.copyload = load i64, ptr %.sroa.310.0..sroa_idx, align 8
  br label %.loopexit

_ZN4llvmeqENS_9StringRefES0_.exit.thread12:       ; preds = %4, %_ZN4llvmeqENS_9StringRefES0_.exit
  %.0.add = add nuw nsw i64 %.0.idx15, 32
  %.not = icmp eq i64 %.0.add, 352
  br i1 %.not, label %.loopexit, label %4

.loopexit:                                        ; preds = %_ZN4llvmeqENS_9StringRefES0_.exit.thread12, %_ZN4llvmeqENS_9StringRefES0_.exit.thread
  %.sroa.09.0 = phi ptr [ %.sroa.09.0.copyload, %_ZN4llvmeqENS_9StringRefES0_.exit.thread ], [ %0, %_ZN4llvmeqENS_9StringRefES0_.exit.thread12 ]
  %.sroa.310.0 = phi i64 [ %.sroa.310.0.copyload, %_ZN4llvmeqENS_9StringRefES0_.exit.thread ], [ %1, %_ZN4llvmeqENS_9StringRefES0_.exit.thread12 ]
  %.fca.0.insert = insertvalue { ptr, i64 } poison, ptr %.sroa.09.0, 0
  %.fca.1.insert = insertvalue { ptr, i64 } %.fca.0.insert, i64 %.sroa.310.0, 1
  ret { ptr, i64 } %.fca.1.insert
}